target datalayout = "e-m:e-p270:32:32-p271:32:32-p272:64:64-i64:64-i128:128-f80:128-n8:16:32:64-S128"
target triple = "x86_64-pc-linux-gnu"

%struct._zval_struct = type { %union._zend_value, %union.anon, %union.anon.2 }
%union._zend_value = type { i64 }
%union.anon = type { i32 }
%union.anon.2 = type { i32 }
%struct._zend_array = type { %struct._zend_refcounted_h, %union.anon.4, i32, %union.anon.6, i32, i32, i32, i32, i64, ptr }
%struct._zend_refcounted_h = type { i32, %union.anon.3 }
%union.anon.3 = type { i32 }
%union.anon.4 = type { i32 }
%union.anon.6 = type { ptr }
%struct.anon.0 = type { i8, i8, %union.anon.1 }
%union.anon.1 = type { i16 }

@configuration_hash = internal global %struct._zend_array zeroinitializer, align 8

; Function Attrs: alwaysinline nounwind uwtable
define internal zeroext i8 @zval_get_type(ptr noundef %0) #3 {
  %2 = alloca ptr, align 8
  store ptr %0, ptr %2, align 8, !tbaa !55
  %3 = load ptr, ptr %2, align 8, !tbaa !55
  %4 = getelementptr inbounds nuw %struct._zval_struct, ptr %3, i32 0, i32 1
  %5 = getelementptr inbounds nuw %struct.anon.0, ptr %4, i32 0, i32 0
  %6 = load i8, ptr %5, align 8, !tbaa !51
  ret i8 %6
}

; Function Attrs: alwaysinline nounwind uwtable
define internal double @zval_get_double(ptr noundef %0) #3 {
  %2 = alloca ptr, align 8
  store ptr %0, ptr %2, align 8, !tbaa !55
  %3 = load ptr, ptr %2, align 8, !tbaa !55
  %4 = call zeroext i8 @zval_get_type(ptr noundef %3)
  %5 = zext i8 %4 to i32
  %6 = icmp eq i32 %5, 5
  %7 = xor i1 %6, true
  %8 = xor i1 %7, true
  %9 = zext i1 %8 to i32
  %10 = sext i32 %9 to i64
  %11 = call i64 @llvm.expect.i64(i64 %10, i64 1)
  %12 = icmp ne i64 %11, 0
  br i1 %12, label %13, label %17

13:                                               ; preds = %1
  %14 = load ptr, ptr %2, align 8, !tbaa !55
  %15 = getelementptr inbounds nuw %struct._zval_struct, ptr %14, i32 0, i32 0
  %16 = load double, ptr %15, align 8, !tbaa !51
  br label %20

17:                                               ; preds = %1
  %18 = load ptr, ptr %2, align 8, !tbaa !55
  %19 = call double @zval_get_double_func(ptr noundef %18)
  br label %20

20:                                               ; preds = %17, %13
  %21 = phi double [ %16, %13 ], [ %19, %17 ]
  ret double %21
}

; Function Attrs: nounwind uwtable
define dso_local i32 @cfg_get_double(ptr noundef %0, ptr noundef %1) #0 {
  %3 = alloca i32, align 4
  %4 = alloca ptr, align 8
  %5 = alloca ptr, align 8
  %6 = alloca ptr, align 8
  %7 = alloca i32, align 4
  store ptr %0, ptr %4, align 8, !tbaa !64
  store ptr %1, ptr %5, align 8, !tbaa !104
  call void @llvm.lifetime.start.p0(i64 8, ptr %6) #14
  %8 = load ptr, ptr %4, align 8, !tbaa !64
  %9 = load ptr, ptr %4, align 8, !tbaa !64
  %10 = call i64 @strlen(ptr noundef %9) #15
  %11 = call ptr @zend_hash_str_find(ptr noundef @configuration_hash, ptr noundef %8, i64 noundef %10)
  store ptr %11, ptr %6, align 8, !tbaa !55
  %12 = icmp eq ptr %11, null
  br i1 %12, label %13, label %15

13:                                               ; preds = %2
  %14 = load ptr, ptr %5, align 8, !tbaa !104
  store double 0.000000e+00, ptr %14, align 8, !tbaa !106
  store i32 -1, ptr %3, align 4
  store i32 1, ptr %7, align 4
  br label %19

15:                                               ; preds = %2
  %16 = load ptr, ptr %6, align 8, !tbaa !55
  %17 = call double @zval_get_double(ptr noundef %16)
  %18 = load ptr, ptr %5, align 8, !tbaa !104
  store double %17, ptr %18, align 8, !tbaa !106
  store i32 0, ptr %3, align 4
  store i32 1, ptr %7, align 4
  br label %19

19:                                               ; preds = %15, %13
  call void @llvm.lifetime.end.p0(i64 8, ptr %6) #14
  %20 = load i32, ptr %3, align 4
  ret i32 %20
}