; Function Attrs: nounwind uwtable
define dso_local range(i32 -1, 1) i32 @cfg_get_double(ptr noundef %0, ptr noundef writeonly captures(none) initializes((0, 8)) %1) local_unnamed_addr #0 {
  %3 = tail call i64 @strlen(ptr noundef nonnull dereferenceable(1) %0) #17
  %4 = tail call ptr @zend_hash_str_find(ptr noundef nonnull @configuration_hash, ptr noundef nonnull %0, i64 noundef %3) #16
  %5 = icmp eq ptr %4, null
  br i1 %5, label %zval_get_double.exit, label %6

6:                                                ; preds = %2
  %7 = getelementptr inbounds nuw i8, ptr %4, i64 8
  %8 = load i8, ptr %7, align 8, !tbaa !47
  %9 = icmp eq i8 %8, 5
  br i1 %9, label %10, label %12, !prof !89

10:                                               ; preds = %6
  %11 = load double, ptr %4, align 8, !tbaa !47
  br label %zval_get_double.exit

12:                                               ; preds = %6
  %13 = tail call double @zval_get_double_func(ptr noundef nonnull %4) #16
  br label %zval_get_double.exit

zval_get_double.exit:                             ; preds = %12, %10, %2
  %storemerge = phi double [ 0.000000e+00, %2 ], [ %11, %10 ], [ %13, %12 ]
  %.0 = phi i32 [ -1, %2 ], [ 0, %10 ], [ 0, %12 ]
  store double %storemerge, ptr %1, align 8, !tbaa !93
  ret i32 %.0
}